(dp0
Vengine
p1
S'pdflatex'
p2
sVpackages
p3
c__builtin__
set
p4
((lp5
Vmulticol
p6
aVbooktabs
p7
aVamsmath
p8
aVtimes
p9
aVcaption
p10
aVxcolor
p11
aVamsthm
p12
aVamsfonts
p13
aVgraphicx
p14
aVwrapfig
p15
aVamssymb
p16
atp17
Rp18
sVfiles_with_guttermarks
p19
g4
((lp20
S'conference_poster_5.tex'
p21
aV/Users/williammccausland/Dropbox/_RCM/Population_study_poster/conference_poster_5.tex
p22
atp23
Rp24
sVsynctex
p25
I01
s.