(dp0
Vengine
p1
Vxelatex
p2
sVpackages
p3
c__builtin__
set
p4
((lp5
Vhyperref
p6
aVauthblk
p7
aVmcode
p8
aVamsmath
p9
aVpstcol
p10
aVtimes
p11
aVpstricks
p12
aVcolortbl
p13
aVpst-node
p14
aVpst-plot
p15
aVgraphicx
p16
aVtxfonts
p17
aVamssymb
p18
atp19
Rp20
sVfiles_with_guttermarks
p21
g4
((lp22
S'yougov_experiment_ideas.tex'
p23
atp24
Rp25
sVsynctex
p26
I01
s.